target datalayout = "e-m:e-p270:32:32-p271:32:32-p272:64:64-i64:64-i128:128-f80:128-n8:16:32:64-S128"
target triple = "x86_64-pc-linux-gnu"

%struct._GtkTreeIter = type { i32, ptr, ptr, ptr }
%struct._GTypeInstance = type { ptr }
%struct._GTypeClass = type { i64 }

; Function Attrs: nounwind uwtable
define internal void @_reset_sel_on_path_full(ptr noundef %0, ptr noundef %1, i32 noundef %2) #0 {
  %4 = alloca ptr, align 8
  %5 = alloca ptr, align 8
  %6 = alloca i32, align 4
  %7 = alloca %struct._GtkTreeIter, align 8
  %8 = alloca %struct._GtkTreeIter, align 8
  %9 = alloca ptr, align 8
  %10 = alloca i64, align 8
  %11 = alloca i32, align 4
  %12 = alloca i32, align 4
  store ptr %0, ptr %4, align 8, !tbaa !36
  store ptr %1, ptr %5, align 8, !tbaa !134
  store i32 %2, ptr %6, align 4, !tbaa !31
  call void @llvm.lifetime.start.p0(i64 32, ptr %7) #11
  call void @llvm.lifetime.start.p0(i64 32, ptr %8) #11
  %13 = load ptr, ptr %5, align 8, !tbaa !134
  call void @llvm.memcpy.p0.p0.i64(ptr align 8 %8, ptr align 8 %13, i64 32, i1 false), !tbaa.struct !50
  br label %14

14:                                               ; preds = %65, %3
  call void @llvm.lifetime.start.p0(i64 8, ptr %9) #11
  %15 = load ptr, ptr %4, align 8, !tbaa !36
  store ptr %15, ptr %9, align 8, !tbaa !207
  call void @llvm.lifetime.start.p0(i64 8, ptr %10) #11
  %16 = call i64 @gtk_tree_store_get_type() #12
  store i64 %16, ptr %10, align 8, !tbaa !179
  call void @llvm.lifetime.start.p0(i64 4, ptr %11) #11
  %17 = load ptr, ptr %9, align 8, !tbaa !207
  %18 = icmp ne ptr %17, null
  br i1 %18, label %20, label %19

19:                                               ; preds = %14
  store i32 0, ptr %11, align 4, !tbaa !31
  br label %39

20:                                               ; preds = %14
  %21 = load ptr, ptr %9, align 8, !tbaa !207
  %22 = getelementptr inbounds nuw %struct._GTypeInstance, ptr %21, i32 0, i32 0
  %23 = load ptr, ptr %22, align 8, !tbaa !209
  %24 = icmp ne ptr %23, null
  br i1 %24, label %25, label %34

25:                                               ; preds = %20
  %26 = load ptr, ptr %9, align 8, !tbaa !207
  %27 = getelementptr inbounds nuw %struct._GTypeInstance, ptr %26, i32 0, i32 0
  %28 = load ptr, ptr %27, align 8, !tbaa !209
  %29 = getelementptr inbounds nuw %struct._GTypeClass, ptr %28, i32 0, i32 0
  %30 = load i64, ptr %29, align 8, !tbaa !212
  %31 = load i64, ptr %10, align 8, !tbaa !179
  %32 = icmp eq i64 %30, %31
  br i1 %32, label %33, label %34

33:                                               ; preds = %25
  store i32 1, ptr %11, align 4, !tbaa !31
  br label %38

34:                                               ; preds = %25, %20
  %35 = load ptr, ptr %9, align 8, !tbaa !207
  %36 = load i64, ptr %10, align 8, !tbaa !179
  %37 = call i32 @g_type_check_instance_is_a(ptr noundef %35, i64 noundef %36) #13
  store i32 %37, ptr %11, align 4, !tbaa !31
  br label %38

38:                                               ; preds = %34, %33
  br label %39

39:                                               ; preds = %38, %19
  %40 = load i32, ptr %11, align 4, !tbaa !31
  store i32 %40, ptr %12, align 4, !tbaa !31
  call void @llvm.lifetime.end.p0(i64 4, ptr %11) #11
  call void @llvm.lifetime.end.p0(i64 8, ptr %10) #11
  call void @llvm.lifetime.end.p0(i64 8, ptr %9) #11
  %41 = load i32, ptr %12, align 4, !tbaa !31
  %42 = icmp ne i32 %41, 0
  br i1 %42, label %43, label %53

43:                                               ; preds = %39
  %44 = load ptr, ptr %4, align 8, !tbaa !36
  %45 = call i64 @gtk_tree_store_get_type() #12
  %46 = call ptr @g_type_check_instance_cast(ptr noundef %44, i64 noundef %45)
  call void (ptr, ptr, ...) @gtk_tree_store_set(ptr noundef %46, ptr noundef %8, i32 noundef 5, i32 noundef 0, i32 noundef -1)
  %47 = load ptr, ptr %4, align 8, !tbaa !36
  %48 = call i32 @gtk_tree_model_iter_children(ptr noundef %47, ptr noundef %7, ptr noundef %8)
  %49 = icmp ne i32 %48, 0
  br i1 %49, label %50, label %52

50:                                               ; preds = %43
  %51 = load ptr, ptr %4, align 8, !tbaa !36
  call void @_reset_sel_on_path_full(ptr noundef %51, ptr noundef %7, i32 noundef 0)
  br label %52

52:                                               ; preds = %50, %43
  br label %57

53:                                               ; preds = %39
  %54 = load ptr, ptr %4, align 8, !tbaa !36
  %55 = call i64 @gtk_list_store_get_type() #12
  %56 = call ptr @g_type_check_instance_cast(ptr noundef %54, i64 noundef %55)
  call void (ptr, ptr, ...) @gtk_list_store_set(ptr noundef %56, ptr noundef %8, i32 noundef 5, i32 noundef 0, i32 noundef -1)
  br label %57

57:                                               ; preds = %53, %52
  br label %58

58:                                               ; preds = %57
  %59 = load i32, ptr %6, align 4, !tbaa !31
  %60 = icmp ne i32 %59, 0
  br i1 %60, label %65, label %61

61:                                               ; preds = %58
  %62 = load ptr, ptr %4, align 8, !tbaa !36
  %63 = call i32 @gtk_tree_model_iter_next(ptr noundef %62, ptr noundef %8)
  %64 = icmp ne i32 %63, 0
  br label %65

65:                                               ; preds = %61, %58
  %66 = phi i1 [ false, %58 ], [ %64, %61 ]
  br i1 %66, label %14, label %67

67:                                               ; preds = %65
  call void @llvm.lifetime.end.p0(i64 32, ptr %8) #11
  call void @llvm.lifetime.end.p0(i64 32, ptr %7) #11
  ret void
}