; Function Attrs: nounwind uwtable
define internal fastcc void @_reset_sel_on_path_full(ptr noundef %0, ptr noundef nonnull readonly captures(none) %1) unnamed_addr #1 {
  %3 = alloca %struct._GtkTreeIter, align 8
  %4 = alloca %struct._GtkTreeIter, align 8
  call void @llvm.lifetime.start.p0(i64 32, ptr nonnull %3) #16
  call void @llvm.lifetime.start.p0(i64 32, ptr nonnull %4) #16
  call void @llvm.memcpy.p0.p0.i64(ptr noundef nonnull align 8 dereferenceable(32) %4, ptr noundef nonnull align 8 dereferenceable(32) %1, i64 32, i1 false), !tbaa.struct !45
  %5 = tail call i64 @gtk_tree_store_get_type() #17
  %.not = icmp eq ptr %0, null
  br i1 %.not, label %.split.us, label %.split

.split.us:                                        ; preds = %2
  %6 = tail call i64 @gtk_list_store_get_type() #17
  br label %.critedge22.us

.critedge22.us:                                   ; preds = %.critedge22.us, %.split.us
  %7 = call ptr @g_type_check_instance_cast(ptr noundef null, i64 noundef %6) #16
  call void (ptr, ptr, ...) @gtk_list_store_set(ptr noundef %7, ptr noundef nonnull %4, i32 noundef 5, i32 noundef 0, i32 noundef -1) #16
  %8 = call i32 @gtk_tree_model_iter_next(ptr noundef null, ptr noundef nonnull %4) #16
  %.not20.us = icmp eq i32 %8, 0
  br i1 %.not20.us, label %.critedge, label %.critedge22.us

.split:                                           ; preds = %2, %21
  %9 = load ptr, ptr %0, align 8, !tbaa !140
  %.not17 = icmp eq ptr %9, null
  br i1 %.not17, label %13, label %10

10:                                               ; preds = %.split
  %11 = load i64, ptr %9, align 8, !tbaa !143
  %12 = icmp eq i64 %11, %5
  br i1 %12, label %.critedge24, label %13

13:                                               ; preds = %10, %.split
  %14 = call i32 @g_type_check_instance_is_a(ptr noundef nonnull %0, i64 noundef %5) #18
  %15 = icmp eq i32 %14, 0
  br i1 %15, label %.critedge22, label %.critedge24

.critedge24:                                      ; preds = %10, %13
  %16 = call ptr @g_type_check_instance_cast(ptr noundef nonnull %0, i64 noundef %5) #16
  call void (ptr, ptr, ...) @gtk_tree_store_set(ptr noundef %16, ptr noundef nonnull %4, i32 noundef 5, i32 noundef 0, i32 noundef -1) #16
  %17 = call i32 @gtk_tree_model_iter_children(ptr noundef nonnull %0, ptr noundef nonnull %3, ptr noundef nonnull %4) #16
  %.not19 = icmp eq i32 %17, 0
  br i1 %.not19, label %21, label %18

18:                                               ; preds = %.critedge24
  call fastcc void @_reset_sel_on_path_full(ptr noundef nonnull %0, ptr noundef %3)
  br label %21

.critedge22:                                      ; preds = %13
  %19 = tail call i64 @gtk_list_store_get_type() #17
  %20 = call ptr @g_type_check_instance_cast(ptr noundef nonnull %0, i64 noundef %19) #16
  call void (ptr, ptr, ...) @gtk_list_store_set(ptr noundef %20, ptr noundef nonnull %4, i32 noundef 5, i32 noundef 0, i32 noundef -1) #16
  br label %21

21:                                               ; preds = %.critedge24, %18, %.critedge22
  %22 = call i32 @gtk_tree_model_iter_next(ptr noundef nonnull %0, ptr noundef nonnull %4) #16
  %.not20 = icmp eq i32 %22, 0
  br i1 %.not20, label %.critedge, label %.split

.critedge:                                        ; preds = %21, %.critedge22.us
  call void @llvm.lifetime.end.p0(i64 32, ptr nonnull %4) #16
  call void @llvm.lifetime.end.p0(i64 32, ptr nonnull %3) #16
  ret void
}